; Function Attrs: mustprogress uwtable
define noundef zeroext i1 @_ZNK6casadi18DaeBuilderInternal5has_tEv(ptr noundef nonnull readonly align 8 captures(none) dereferenceable(1017) %0) local_unnamed_addr #4 align 2 {
  %2 = getelementptr inbounds nuw i8, ptr %0, i64 760
  %3 = getelementptr inbounds nuw i8, ptr %0, i64 768
  %4 = load ptr, ptr %3, align 8, !tbaa !209
  %5 = load ptr, ptr %2, align 8, !tbaa !206
  %.not.i.i.i.i.i.not = icmp eq ptr %4, %5
  br i1 %.not.i.i.i.i.i.not, label %6, label %_ZNK6casadi18DaeBuilderInternal4sizeENS_8CategoryE.exit

6:                                                ; preds = %1
  tail call void (ptr, ...) @_ZSt24__throw_out_of_range_fmtPKcz(ptr noundef nonnull @.str.690, i64 noundef 0, i64 noundef 0) #29
  unreachable

_ZNK6casadi18DaeBuilderInternal4sizeENS_8CategoryE.exit: ; preds = %1
  %7 = getelementptr inbounds nuw i8, ptr %5, i64 8
  %8 = load ptr, ptr %7, align 8, !tbaa !326
  %9 = load ptr, ptr %5, align 8, !tbaa !202
  %10 = icmp ne ptr %8, %9
  ret i1 %10
}